target datalayout = "e-m:e-p270:32:32-p271:32:32-p272:64:64-i64:64-i128:128-f80:128-n8:16:32:64-S128"
target triple = "x86_64-pc-linux-gnu"

@.str.731 = private unnamed_addr constant [48 x i8] c"Path Computation Element communication Protocol\00", align 1
@.str.732 = private unnamed_addr constant [5 x i8] c"PCEP\00", align 1
@.str.733 = private unnamed_addr constant [5 x i8] c"pcep\00", align 1
@proto_pcep = internal global i32 0, align 4
@pcep_handle = internal global ptr null, align 8

; Function Attrs: null_pointer_is_valid sspstrong uwtable
define hidden void @proto_register_pcep() #0 {
  %1 = alloca ptr, align 8
  call void @llvm.lifetime.start.p0(i64 8, ptr %1) #4
  %2 = call i32 @proto_register_protocol(ptr noundef @.str.731, ptr noundef @.str.732, ptr noundef @.str.733)
  store i32 %2, ptr @proto_pcep, align 4
  %3 = load i32, ptr @proto_pcep, align 4
  call void @proto_register_field_array(i32 noundef %3, ptr noundef @proto_register_pcep.pcepf_info, i32 noundef 425)
  call void @proto_register_subtree_array(ptr noundef @proto_register_pcep.ett, i32 noundef 46)
  %4 = load i32, ptr @proto_pcep, align 4
  %5 = call ptr @expert_register_protocol(i32 noundef %4)
  store ptr %5, ptr %1, align 8
  %6 = load ptr, ptr %1, align 8
  call void @expert_register_field_array(ptr noundef %6, ptr noundef @proto_register_pcep.ei, i32 noundef 6)
  %7 = load i32, ptr @proto_pcep, align 4
  %8 = call ptr @register_dissector(ptr noundef @.str.733, ptr noundef @dissect_pcep, i32 noundef %7)
  store ptr %8, ptr @pcep_handle, align 8
  call void @llvm.lifetime.end.p0(i64 8, ptr %1) #4
  ret void
}