; Function Attrs: null_pointer_is_valid sspstrong uwtable
define hidden void @proto_register_pcep() local_unnamed_addr #0 {
  %1 = tail call i32 @proto_register_protocol(ptr noundef nonnull @.str.731, ptr noundef nonnull @.str.732, ptr noundef nonnull @.str.733)
  store i32 %1, ptr @proto_pcep, align 4
  tail call void @proto_register_field_array(i32 noundef %1, ptr noundef nonnull @proto_register_pcep.pcepf_info, i32 noundef 425)
  tail call void @proto_register_subtree_array(ptr noundef nonnull @proto_register_pcep.ett, i32 noundef 46)
  %2 = load i32, ptr @proto_pcep, align 4
  %3 = tail call ptr @expert_register_protocol(i32 noundef %2)
  tail call void @expert_register_field_array(ptr noundef %3, ptr noundef nonnull @proto_register_pcep.ei, i32 noundef 6)
  %4 = load i32, ptr @proto_pcep, align 4
  %5 = tail call ptr @register_dissector(ptr noundef nonnull @.str.733, ptr noundef nonnull @dissect_pcep, i32 noundef %4)
  store ptr %5, ptr @pcep_handle, align 8
  ret void
}